; Function Attrs: mustprogress nofree norecurse nosync nounwind willreturn memory(none) uwtable
define signext range(i8 0, 2) i8 @u_isdigit_77(i32 noundef %0) local_unnamed_addr #0 {
  %2 = icmp ult i32 %0, 55296
  br i1 %2, label %3, label %5

3:                                                ; preds = %1
  %4 = lshr i32 %0, 5
  br label %.sink.split

5:                                                ; preds = %1
  %6 = icmp ult i32 %0, 65536
  br i1 %6, label %7, label %12

7:                                                ; preds = %5
  %8 = icmp samesign ult i32 %0, 56320
  %9 = select i1 %8, i32 320, i32 0
  %10 = lshr i32 %0, 5
  %11 = add nuw nsw i32 %9, %10
  br label %.sink.split

12:                                               ; preds = %5
  %13 = icmp ugt i32 %0, 1114111
  br i1 %13, label %32, label %14

14:                                               ; preds = %12
  %15 = lshr i32 %0, 11
  %16 = zext nneg i32 %15 to i64
  %17 = getelementptr inbounds nuw i16, ptr @_ZL15propsTrie_index, i64 %16
  %18 = getelementptr inbounds nuw i8, ptr %17, i64 4160
  %19 = load i16, ptr %18, align 2, !tbaa !3
  %20 = zext i16 %19 to i32
  %21 = lshr i32 %0, 5
  %22 = and i32 %21, 63
  %23 = add nuw nsw i32 %22, %20
  br label %.sink.split

.sink.split:                                      ; preds = %3, %14, %7
  %.sink16 = phi i32 [ %11, %7 ], [ %23, %14 ], [ %4, %3 ]
  %24 = zext nneg i32 %.sink16 to i64
  %25 = getelementptr inbounds nuw i16, ptr @_ZL15propsTrie_index, i64 %24
  %26 = load i16, ptr %25, align 2, !tbaa !3
  %27 = zext i16 %26 to i32
  %28 = shl nuw nsw i32 %27, 2
  %29 = and i32 %0, 31
  %30 = add nuw nsw i32 %28, %29
  %31 = zext nneg i32 %30 to i64
  br label %32

32:                                               ; preds = %.sink.split, %12
  %33 = phi i64 [ 4876, %12 ], [ %31, %.sink.split ]
  %34 = getelementptr inbounds nuw i16, ptr @_ZL15propsTrie_index, i64 %33
  %35 = load i16, ptr %34, align 2, !tbaa !3
  %36 = and i16 %35, 31
  %37 = icmp eq i16 %36, 9
  %38 = zext i1 %37 to i8
  ret i8 %38
}